target datalayout = "e-m:e-p270:32:32-p271:32:32-p272:64:64-i64:64-i128:128-f80:128-n8:16:32:64-S128"
target triple = "x86_64-pc-linux-gnu"

%struct.Llb_Mnn_t_ = type { ptr, ptr, ptr, ptr, ptr, ptr, ptr, ptr, ptr, ptr, ptr, ptr, ptr, ptr, ptr, ptr, ptr, i32, i32, i64, i64, i64, i64, i64, i64, i64, i64 }
%struct.Gia_ParLlb_t_ = type { i32, i32, i32, i32, i32, i32, i32, i32, i32, i32, i32, i32, i32, i32, i32, i32, i32, i32, i32, i32, i32, i32, i32, i64, i32 }
%struct.timespec = type { i64, i64 }

; Function Attrs: inlinehint nounwind uwtable
define internal i64 @Abc_Clock() #3 {
  %1 = alloca i64, align 8
  %2 = alloca %struct.timespec, align 8
  %3 = alloca i32, align 4
  %4 = alloca i64, align 8
  call void @llvm.lifetime.start.p0(i64 16, ptr %2) #12
  %5 = call i32 @clock_gettime(i32 noundef 1, ptr noundef %2) #12
  %6 = icmp slt i32 %5, 0
  br i1 %6, label %7, label %8

7:                                                ; preds = %0
  store i64 -1, ptr %1, align 8
  store i32 1, ptr %3, align 4
  br label %19

8:                                                ; preds = %0
  call void @llvm.lifetime.start.p0(i64 8, ptr %4) #12
  %9 = getelementptr inbounds nuw %struct.timespec, ptr %2, i32 0, i32 0
  %10 = load i64, ptr %9, align 8, !tbaa !143
  %11 = mul nsw i64 %10, 1000000
  store i64 %11, ptr %4, align 8, !tbaa !14
  %12 = getelementptr inbounds nuw %struct.timespec, ptr %2, i32 0, i32 1
  %13 = load i64, ptr %12, align 8, !tbaa !145
  %14 = mul nsw i64 %13, 1000000
  %15 = sdiv i64 %14, 1000000000
  %16 = load i64, ptr %4, align 8, !tbaa !14
  %17 = add nsw i64 %16, %15
  store i64 %17, ptr %4, align 8, !tbaa !14
  %18 = load i64, ptr %4, align 8, !tbaa !14
  store i64 %18, ptr %1, align 8
  store i32 1, ptr %3, align 4
  call void @llvm.lifetime.end.p0(i64 8, ptr %4) #12
  br label %19

19:                                               ; preds = %8, %7
  call void @llvm.lifetime.end.p0(i64 16, ptr %2) #12
  %20 = load i64, ptr %1, align 8
  ret i64 %20
}

; Function Attrs: nounwind uwtable
define void @Llb_NonlinExperiment(ptr noundef %0, i32 noundef %1) #0 {
  %3 = alloca ptr, align 8
  %4 = alloca i32, align 4
  %5 = alloca ptr, align 8
  %6 = alloca %struct.Gia_ParLlb_t_, align 8
  %7 = alloca ptr, align 8
  %8 = alloca ptr, align 8
  %9 = alloca i64, align 8
  store ptr %0, ptr %3, align 8, !tbaa !10
  store i32 %1, ptr %4, align 4, !tbaa !12
  call void @llvm.lifetime.start.p0(i64 8, ptr %5) #12
  call void @llvm.lifetime.start.p0(i64 112, ptr %6) #12
  call void @llvm.lifetime.start.p0(i64 8, ptr %7) #12
  store ptr %6, ptr %7, align 8, !tbaa !131
  call void @llvm.lifetime.start.p0(i64 8, ptr %8) #12
  call void @llvm.lifetime.start.p0(i64 8, ptr %9) #12
  %10 = call i64 @Abc_Clock()
  store i64 %10, ptr %9, align 8, !tbaa !14
  %11 = load ptr, ptr %7, align 8, !tbaa !131
  call void @Llb_ManSetDefaultParams(ptr noundef %11)
  %12 = load ptr, ptr %7, align 8, !tbaa !131
  %13 = getelementptr inbounds nuw %struct.Gia_ParLlb_t_, ptr %12, i32 0, i32 16
  store i32 1, ptr %13, align 8, !tbaa !124
  %14 = load ptr, ptr %3, align 8, !tbaa !10
  %15 = call ptr @Aig_ManDupFlopsOnly(ptr noundef %14)
  store ptr %15, ptr %8, align 8, !tbaa !10
  %16 = load ptr, ptr %3, align 8, !tbaa !10
  call void @Aig_ManPrintStats(ptr noundef %16)
  %17 = load ptr, ptr %8, align 8, !tbaa !10
  call void @Aig_ManPrintStats(ptr noundef %17)
  %18 = load ptr, ptr %3, align 8, !tbaa !10
  %19 = load ptr, ptr %8, align 8, !tbaa !10
  %20 = load ptr, ptr %7, align 8, !tbaa !131
  %21 = call ptr @Llb_MnnStart(ptr noundef %18, ptr noundef %19, ptr noundef %20)
  store ptr %21, ptr %5, align 8, !tbaa !39
  %22 = load ptr, ptr %5, align 8, !tbaa !39
  %23 = call i32 @Llb_NonlinReachability(ptr noundef %22)
  %24 = call i64 @Abc_Clock()
  %25 = load i64, ptr %9, align 8, !tbaa !14
  %26 = sub nsw i64 %24, %25
  %27 = load ptr, ptr %5, align 8, !tbaa !39
  %28 = getelementptr inbounds nuw %struct.Llb_Mnn_t_, ptr %27, i32 0, i32 24
  store i64 %26, ptr %28, align 8, !tbaa !136
  %29 = load ptr, ptr %5, align 8, !tbaa !39
  call void @Llb_MnnStop(ptr noundef %29)
  %30 = load ptr, ptr %8, align 8, !tbaa !10
  call void @Aig_ManStop(ptr noundef %30)
  call void @llvm.lifetime.end.p0(i64 8, ptr %9) #12
  call void @llvm.lifetime.end.p0(i64 8, ptr %8) #12
  call void @llvm.lifetime.end.p0(i64 8, ptr %7) #12
  call void @llvm.lifetime.end.p0(i64 112, ptr %6) #12
  call void @llvm.lifetime.end.p0(i64 8, ptr %5) #12
  ret void
}