; Function Attrs: nounwind uwtable
define void @Llb_NonlinExperiment(ptr noundef %0, i32 noundef %1) local_unnamed_addr #0 {
  %3 = alloca %struct.timespec, align 8
  %4 = alloca %struct.timespec, align 8
  %5 = alloca %struct.Gia_ParLlb_t_, align 8
  call void @llvm.lifetime.start.p0(i64 112, ptr nonnull %5) #19
  call void @llvm.lifetime.start.p0(i64 16, ptr nonnull %4) #19
  %6 = call i32 @clock_gettime(i32 noundef 1, ptr noundef nonnull %4) #19
  %7 = icmp slt i32 %6, 0
  br i1 %7, label %Abc_Clock.exit, label %8

8:                                                ; preds = %2
  %9 = load i64, ptr %4, align 8, !tbaa !3
  %.neg14 = mul i64 %9, -1000000
  %10 = getelementptr inbounds nuw i8, ptr %4, i64 8
  %11 = load i64, ptr %10, align 8, !tbaa !8
  %.neg = sdiv i64 %11, -1000
  %.neg15 = add i64 %.neg, %.neg14
  br label %Abc_Clock.exit

Abc_Clock.exit:                                   ; preds = %2, %8
  %.0.i.neg = phi i64 [ %.neg15, %8 ], [ 1, %2 ]
  call void @llvm.lifetime.end.p0(i64 16, ptr nonnull %4) #19
  call void @Llb_ManSetDefaultParams(ptr noundef nonnull %5) #19
  %12 = getelementptr inbounds nuw i8, ptr %5, i64 64
  store i32 1, ptr %12, align 8, !tbaa !114
  %13 = call ptr @Aig_ManDupFlopsOnly(ptr noundef %0) #19
  call void @Aig_ManPrintStats(ptr noundef %0) #19
  call void @Aig_ManPrintStats(ptr noundef %13) #19
  %14 = call ptr @Llb_MnnStart(ptr noundef %0, ptr noundef %13, ptr noundef nonnull %5)
  %15 = call i32 @Llb_NonlinReachability(ptr noundef %14)
  call void @llvm.lifetime.start.p0(i64 16, ptr nonnull %3) #19
  %16 = call i32 @clock_gettime(i32 noundef 1, ptr noundef nonnull %3) #19
  %17 = icmp slt i32 %16, 0
  br i1 %17, label %Abc_Clock.exit13, label %18

18:                                               ; preds = %Abc_Clock.exit
  %19 = load i64, ptr %3, align 8, !tbaa !3
  %20 = mul nsw i64 %19, 1000000
  %21 = getelementptr inbounds nuw i8, ptr %3, i64 8
  %22 = load i64, ptr %21, align 8, !tbaa !8
  %23 = sdiv i64 %22, 1000
  %24 = add nsw i64 %23, %20
  br label %Abc_Clock.exit13

Abc_Clock.exit13:                                 ; preds = %Abc_Clock.exit, %18
  %.0.i12 = phi i64 [ %24, %18 ], [ -1, %Abc_Clock.exit ]
  call void @llvm.lifetime.end.p0(i64 16, ptr nonnull %3) #19
  %25 = add i64 %.0.i12, %.0.i.neg
  %26 = getelementptr inbounds nuw i8, ptr %14, i64 184
  store i64 %25, ptr %26, align 8, !tbaa !126
  call void @Llb_MnnStop(ptr noundef %14)
  call void @Aig_ManStop(ptr noundef %13) #19
  call void @llvm.lifetime.end.p0(i64 112, ptr nonnull %5) #19
  ret void
}